target datalayout = "e-m:e-p270:32:32-p271:32:32-p272:64:64-i64:64-i128:128-f80:128-n8:16:32:64-S128"
target triple = "x86_64-pc-linux-gnu"

%struct.message = type { ptr, i32, i32, ptr, ptr, ptr, ptr, ptr, ptr, i64, i32, ptr, ptr, ptr, ptr, ptr, i8, i8, i8, i8, ptr }

@.str = private unnamed_addr constant [88 x i8] c"Internal email parse error: message base64chars should be 0 when resetting the message\0A\00", align 1
@.str.1 = private unnamed_addr constant [92 x i8] c"Internal email parse error: message numberOfEncTypes should be 0 if encoding types are set\0A\00", align 1

; Function Attrs: nounwind uwtable
define void @messageReset(ptr noundef %0) #0 {
  %2 = alloca ptr, align 8
  %3 = alloca i64, align 8
  store ptr %0, ptr %2, align 8
  %4 = load ptr, ptr %2, align 8
  %5 = icmp eq ptr null, %4
  br i1 %5, label %6, label %7

6:                                                ; preds = %1
  br label %95

7:                                                ; preds = %1
  %8 = load ptr, ptr %2, align 8
  %9 = getelementptr inbounds %struct.message, ptr %8, i32 0, i32 3
  %10 = load ptr, ptr %9, align 8
  %11 = icmp ne ptr %10, null
  br i1 %11, label %12, label %16

12:                                               ; preds = %7
  %13 = load ptr, ptr %2, align 8
  %14 = getelementptr inbounds %struct.message, ptr %13, i32 0, i32 3
  %15 = load ptr, ptr %14, align 8
  call void @free(ptr noundef %15) #11
  br label %16

16:                                               ; preds = %12, %7
  %17 = load ptr, ptr %2, align 8
  %18 = getelementptr inbounds %struct.message, ptr %17, i32 0, i32 5
  %19 = load ptr, ptr %18, align 8
  %20 = icmp ne ptr %19, null
  br i1 %20, label %21, label %25

21:                                               ; preds = %16
  %22 = load ptr, ptr %2, align 8
  %23 = getelementptr inbounds %struct.message, ptr %22, i32 0, i32 5
  %24 = load ptr, ptr %23, align 8
  call void @free(ptr noundef %24) #11
  br label %25

25:                                               ; preds = %21, %16
  %26 = load ptr, ptr %2, align 8
  %27 = getelementptr inbounds %struct.message, ptr %26, i32 0, i32 4
  %28 = load ptr, ptr %27, align 8
  %29 = icmp ne ptr %28, null
  br i1 %29, label %30, label %51

30:                                               ; preds = %25
  store i64 0, ptr %3, align 8
  br label %31

31:                                               ; preds = %44, %30
  %32 = load i64, ptr %3, align 8
  %33 = load ptr, ptr %2, align 8
  %34 = getelementptr inbounds %struct.message, ptr %33, i32 0, i32 9
  %35 = load i64, ptr %34, align 8
  %36 = icmp ult i64 %32, %35
  br i1 %36, label %37, label %47

37:                                               ; preds = %31
  %38 = load ptr, ptr %2, align 8
  %39 = getelementptr inbounds %struct.message, ptr %38, i32 0, i32 4
  %40 = load ptr, ptr %39, align 8
  %41 = load i64, ptr %3, align 8
  %42 = getelementptr inbounds ptr, ptr %40, i64 %41
  %43 = load ptr, ptr %42, align 8
  call void @free(ptr noundef %43) #11
  br label %44

44:                                               ; preds = %37
  %45 = load i64, ptr %3, align 8
  %46 = add i64 %45, 1
  store i64 %46, ptr %3, align 8
  br label %31

47:                                               ; preds = %31
  %48 = load ptr, ptr %2, align 8
  %49 = getelementptr inbounds %struct.message, ptr %48, i32 0, i32 4
  %50 = load ptr, ptr %49, align 8
  call void @free(ptr noundef %50) #11
  br label %51

51:                                               ; preds = %47, %25
  %52 = load ptr, ptr %2, align 8
  %53 = getelementptr inbounds %struct.message, ptr %52, i32 0, i32 6
  %54 = load ptr, ptr %53, align 8
  %55 = icmp ne ptr %54, null
  br i1 %55, label %56, label %60

56:                                               ; preds = %51
  %57 = load ptr, ptr %2, align 8
  %58 = getelementptr inbounds %struct.message, ptr %57, i32 0, i32 6
  %59 = load ptr, ptr %58, align 8
  call void @textDestroy(ptr noundef %59)
  br label %60

60:                                               ; preds = %56, %51
  %61 = load ptr, ptr %2, align 8
  %62 = getelementptr inbounds %struct.message, ptr %61, i32 0, i32 10
  %63 = load i32, ptr %62, align 8
  %64 = icmp ne i32 0, %63
  br i1 %64, label %65, label %66

65:                                               ; preds = %60
  call void (ptr, ...) @cli_errmsg(ptr noundef @.str)
  br label %66

66:                                               ; preds = %65, %60
  %67 = load ptr, ptr %2, align 8
  %68 = getelementptr inbounds %struct.message, ptr %67, i32 0, i32 0
  %69 = load ptr, ptr %68, align 8
  %70 = icmp ne ptr %69, null
  br i1 %70, label %71, label %81

71:                                               ; preds = %66
  %72 = load ptr, ptr %2, align 8
  %73 = getelementptr inbounds %struct.message, ptr %72, i32 0, i32 2
  %74 = load i32, ptr %73, align 4
  %75 = icmp eq i32 0, %74
  br i1 %75, label %76, label %77

76:                                               ; preds = %71
  call void (ptr, ...) @cli_errmsg(ptr noundef @.str.1)
  br label %77

77:                                               ; preds = %76, %71
  %78 = load ptr, ptr %2, align 8
  %79 = getelementptr inbounds %struct.message, ptr %78, i32 0, i32 0
  %80 = load ptr, ptr %79, align 8
  call void @free(ptr noundef %80) #11
  br label %81

81:                                               ; preds = %77, %66
  %82 = load ptr, ptr %2, align 8
  %83 = getelementptr inbounds %struct.message, ptr %82, i32 0, i32 20
  %84 = load ptr, ptr %83, align 8
  %85 = icmp ne ptr %84, null
  br i1 %85, label %86, label %91

86:                                               ; preds = %81
  %87 = load ptr, ptr %2, align 8
  %88 = getelementptr inbounds %struct.message, ptr %87, i32 0, i32 20
  %89 = load ptr, ptr %88, align 8
  %90 = call i32 @json_object_put(ptr noundef %89)
  br label %91

91:                                               ; preds = %86, %81
  %92 = load ptr, ptr %2, align 8
  call void @llvm.memset.p0.i64(ptr align 8 %92, i8 0, i64 136, i1 false)
  %93 = load ptr, ptr %2, align 8
  %94 = getelementptr inbounds %struct.message, ptr %93, i32 0, i32 1
  store i32 0, ptr %94, align 8
  br label %95

95:                                               ; preds = %91, %6
  ret void
}