; Function Attrs: nounwind uwtable
define void @messageReset(ptr noundef %0) local_unnamed_addr #2 {
  %2 = icmp eq ptr %0, null
  br i1 %2, label %46, label %3

3:                                                ; preds = %1
  %4 = getelementptr inbounds i8, ptr %0, i64 16
  %5 = load ptr, ptr %4, align 8
  %.not = icmp eq ptr %5, null
  br i1 %.not, label %7, label %6

6:                                                ; preds = %3
  tail call void @free(ptr noundef nonnull %5) #21
  br label %7

7:                                                ; preds = %6, %3
  %8 = getelementptr inbounds i8, ptr %0, i64 32
  %9 = load ptr, ptr %8, align 8
  %.not26 = icmp eq ptr %9, null
  br i1 %.not26, label %11, label %10

10:                                               ; preds = %7
  tail call void @free(ptr noundef nonnull %9) #21
  br label %11

11:                                               ; preds = %10, %7
  %12 = getelementptr inbounds i8, ptr %0, i64 24
  %13 = load ptr, ptr %12, align 8
  %.not27 = icmp eq ptr %13, null
  br i1 %.not27, label %23, label %.preheader

.preheader:                                       ; preds = %11
  %14 = getelementptr inbounds i8, ptr %0, i64 64
  %15 = load i64, ptr %14, align 8
  %.not33 = icmp eq i64 %15, 0
  br i1 %.not33, label %._crit_edge, label %.lr.ph

.lr.ph:                                           ; preds = %.preheader, %.lr.ph
  %.032 = phi i64 [ %19, %.lr.ph ], [ 0, %.preheader ]
  %16 = load ptr, ptr %12, align 8
  %17 = getelementptr inbounds ptr, ptr %16, i64 %.032
  %18 = load ptr, ptr %17, align 8
  tail call void @free(ptr noundef %18) #21
  %19 = add nuw i64 %.032, 1
  %20 = load i64, ptr %14, align 8
  %21 = icmp ult i64 %19, %20
  br i1 %21, label %.lr.ph, label %._crit_edge.loopexit

._crit_edge.loopexit:                             ; preds = %.lr.ph
  %.pre = load ptr, ptr %12, align 8
  br label %._crit_edge

._crit_edge:                                      ; preds = %._crit_edge.loopexit, %.preheader
  %22 = phi ptr [ %.pre, %._crit_edge.loopexit ], [ %13, %.preheader ]
  tail call void @free(ptr noundef %22) #21
  br label %23

23:                                               ; preds = %._crit_edge, %11
  %24 = getelementptr inbounds i8, ptr %0, i64 40
  %25 = load ptr, ptr %24, align 8
  %.not28 = icmp eq ptr %25, null
  br i1 %.not28, label %27, label %26

26:                                               ; preds = %23
  tail call void @textDestroy(ptr noundef nonnull %25) #21
  br label %27

27:                                               ; preds = %26, %23
  %28 = getelementptr inbounds i8, ptr %0, i64 72
  %29 = load i32, ptr %28, align 8
  %.not29 = icmp eq i32 %29, 0
  br i1 %.not29, label %31, label %30

30:                                               ; preds = %27
  tail call void (ptr, ...) @cli_errmsg(ptr noundef nonnull @.str) #21
  br label %31

31:                                               ; preds = %30, %27
  %32 = load ptr, ptr %0, align 8
  %.not30 = icmp eq ptr %32, null
  br i1 %.not30, label %40, label %33

33:                                               ; preds = %31
  %34 = getelementptr inbounds i8, ptr %0, i64 12
  %35 = load i32, ptr %34, align 4
  %36 = icmp eq i32 %35, 0
  br i1 %36, label %37, label %38

37:                                               ; preds = %33
  tail call void (ptr, ...) @cli_errmsg(ptr noundef nonnull @.str.1) #21
  %.pre34 = load ptr, ptr %0, align 8
  br label %38

38:                                               ; preds = %37, %33
  %39 = phi ptr [ %.pre34, %37 ], [ %32, %33 ]
  tail call void @free(ptr noundef %39) #21
  br label %40

40:                                               ; preds = %38, %31
  %41 = getelementptr inbounds i8, ptr %0, i64 128
  %42 = load ptr, ptr %41, align 8
  %.not31 = icmp eq ptr %42, null
  br i1 %.not31, label %45, label %43

43:                                               ; preds = %40
  %44 = tail call i32 @json_object_put(ptr noundef nonnull %42) #21
  br label %45

45:                                               ; preds = %43, %40
  tail call void @llvm.memset.p0.i64(ptr noundef nonnull align 8 dereferenceable(136) %0, i8 0, i64 136, i1 false)
  br label %46

46:                                               ; preds = %1, %45
  ret void
}